target datalayout = "e-m:e-p270:32:32-p271:32:32-p272:64:64-i64:64-i128:128-f80:128-n8:16:32:64-S128"
target triple = "x86_64-pc-linux-gnu"

%struct.SynthFilterContext = type { ptr, ptr, ptr, ptr }

; Function Attrs: nounwind uwtable
define internal void @sub_qmf32_float_c(ptr noundef %0, ptr noundef %1, ptr noundef %2, ptr noundef %3, ptr noundef %4, ptr noundef %5, ptr noundef %6, ptr noundef %7, ptr noundef %8, ptr noundef %9, i64 noundef %10, float noundef %11) #1 {
  %13 = alloca ptr, align 8
  %14 = alloca ptr, align 8
  %15 = alloca ptr, align 8
  %16 = alloca ptr, align 8
  %17 = alloca ptr, align 8
  %18 = alloca ptr, align 8
  %19 = alloca ptr, align 8
  %20 = alloca ptr, align 8
  %21 = alloca ptr, align 8
  %22 = alloca ptr, align 8
  %23 = alloca i64, align 8
  %24 = alloca float, align 4
  %25 = alloca [32 x float], align 16
  %26 = alloca ptr, align 8
  %27 = alloca i32, align 4
  %28 = alloca i32, align 4
  store ptr %0, ptr %13, align 8, !tbaa !47
  store ptr %1, ptr %14, align 8, !tbaa !49
  store ptr %2, ptr %15, align 8, !tbaa !12
  store ptr %3, ptr %16, align 8, !tbaa !42
  store ptr %4, ptr %17, align 8, !tbaa !25
  store ptr %5, ptr %18, align 8, !tbaa !25
  store ptr %6, ptr %19, align 8, !tbaa !42
  store ptr %7, ptr %20, align 8, !tbaa !28
  store ptr %8, ptr %21, align 8, !tbaa !42
  store ptr %9, ptr %22, align 8, !tbaa !42
  store i64 %10, ptr %23, align 8, !tbaa !32
  store float %11, ptr %24, align 4, !tbaa !44
  call void @llvm.lifetime.start.p0(i64 128, ptr %25) #7
  call void @llvm.lifetime.start.p0(i64 8, ptr %26) #7
  %29 = getelementptr inbounds [32 x float], ptr %25, i64 0, i64 0
  store ptr %29, ptr %26, align 8, !tbaa !42
  call void @llvm.lifetime.start.p0(i64 4, ptr %27) #7
  call void @llvm.lifetime.start.p0(i64 4, ptr %28) #7
  store i32 0, ptr %28, align 4, !tbaa !34
  br label %30

30:                                               ; preds = %94, %12
  %31 = load i32, ptr %28, align 4, !tbaa !34
  %32 = sext i32 %31 to i64
  %33 = load i64, ptr %23, align 8, !tbaa !32
  %34 = icmp slt i64 %32, %33
  br i1 %34, label %35, label %97

35:                                               ; preds = %30
  store i32 0, ptr %27, align 4, !tbaa !34
  br label %36

36:                                               ; preds = %76, %35
  %37 = load i32, ptr %27, align 4, !tbaa !34
  %38 = icmp slt i32 %37, 32
  br i1 %38, label %39, label %79

39:                                               ; preds = %36
  %40 = load i32, ptr %27, align 4, !tbaa !34
  %41 = sub nsw i32 %40, 1
  %42 = and i32 %41, 2
  %43 = icmp ne i32 %42, 0
  br i1 %43, label %44, label %60

44:                                               ; preds = %39
  %45 = load ptr, ptr %17, align 8, !tbaa !25
  %46 = load i32, ptr %27, align 4, !tbaa !34
  %47 = sext i32 %46 to i64
  %48 = getelementptr inbounds ptr, ptr %45, i64 %47
  %49 = load ptr, ptr %48, align 8, !tbaa !28
  %50 = load i32, ptr %28, align 4, !tbaa !34
  %51 = sext i32 %50 to i64
  %52 = getelementptr inbounds i32, ptr %49, i64 %51
  %53 = load i32, ptr %52, align 4, !tbaa !34
  %54 = sub nsw i32 0, %53
  %55 = sitofp i32 %54 to float
  %56 = load ptr, ptr %26, align 8, !tbaa !42
  %57 = load i32, ptr %27, align 4, !tbaa !34
  %58 = sext i32 %57 to i64
  %59 = getelementptr inbounds float, ptr %56, i64 %58
  store float %55, ptr %59, align 4, !tbaa !44
  br label %75

60:                                               ; preds = %39
  %61 = load ptr, ptr %17, align 8, !tbaa !25
  %62 = load i32, ptr %27, align 4, !tbaa !34
  %63 = sext i32 %62 to i64
  %64 = getelementptr inbounds ptr, ptr %61, i64 %63
  %65 = load ptr, ptr %64, align 8, !tbaa !28
  %66 = load i32, ptr %28, align 4, !tbaa !34
  %67 = sext i32 %66 to i64
  %68 = getelementptr inbounds i32, ptr %65, i64 %67
  %69 = load i32, ptr %68, align 4, !tbaa !34
  %70 = sitofp i32 %69 to float
  %71 = load ptr, ptr %26, align 8, !tbaa !42
  %72 = load i32, ptr %27, align 4, !tbaa !34
  %73 = sext i32 %72 to i64
  %74 = getelementptr inbounds float, ptr %71, i64 %73
  store float %70, ptr %74, align 4, !tbaa !44
  br label %75

75:                                               ; preds = %60, %44
  br label %76

76:                                               ; preds = %75
  %77 = load i32, ptr %27, align 4, !tbaa !34
  %78 = add nsw i32 %77, 1
  store i32 %78, ptr %27, align 4, !tbaa !34
  br label %36, !llvm.loop !51

79:                                               ; preds = %36
  %80 = load ptr, ptr %13, align 8, !tbaa !47
  %81 = getelementptr inbounds nuw %struct.SynthFilterContext, ptr %80, i32 0, i32 0
  %82 = load ptr, ptr %81, align 8, !tbaa !52
  %83 = load ptr, ptr %14, align 8, !tbaa !49
  %84 = load ptr, ptr %19, align 8, !tbaa !42
  %85 = load ptr, ptr %20, align 8, !tbaa !28
  %86 = load ptr, ptr %21, align 8, !tbaa !42
  %87 = load ptr, ptr %22, align 8, !tbaa !42
  %88 = load ptr, ptr %16, align 8, !tbaa !42
  %89 = load ptr, ptr %26, align 8, !tbaa !42
  %90 = load float, ptr %24, align 4, !tbaa !44
  %91 = load ptr, ptr %15, align 8, !tbaa !12
  call void %82(ptr noundef %83, ptr noundef %84, ptr noundef %85, ptr noundef %86, ptr noundef %87, ptr noundef %88, ptr noundef %89, float noundef %90, ptr noundef %91)
  %92 = load ptr, ptr %16, align 8, !tbaa !42
  %93 = getelementptr inbounds float, ptr %92, i64 32
  store ptr %93, ptr %16, align 8, !tbaa !42
  br label %94

94:                                               ; preds = %79
  %95 = load i32, ptr %28, align 4, !tbaa !34
  %96 = add nsw i32 %95, 1
  store i32 %96, ptr %28, align 4, !tbaa !34
  br label %30, !llvm.loop !54

97:                                               ; preds = %30
  call void @llvm.lifetime.end.p0(i64 4, ptr %28) #7
  call void @llvm.lifetime.end.p0(i64 4, ptr %27) #7
  call void @llvm.lifetime.end.p0(i64 8, ptr %26) #7
  call void @llvm.lifetime.end.p0(i64 128, ptr %25) #7
  ret void
}