; Function Attrs: nounwind uwtable
define internal void @sub_qmf32_float_c(ptr noundef readonly captures(none) %0, ptr noundef %1, ptr noundef %2, ptr noundef %3, ptr noundef readonly captures(none) %4, ptr readnone captures(none) %5, ptr noundef %6, ptr noundef %7, ptr noundef %8, ptr noundef %9, i64 noundef %10, float noundef %11) #4 {
  %13 = alloca [32 x float], align 16
  call void @llvm.lifetime.start.p0(i64 128, ptr nonnull %13) #10
  %14 = icmp sgt i64 %10, 0
  br i1 %14, label %.preheader, label %._crit_edge

.preheader:                                       ; preds = %12, %25
  %indvars.iv33 = phi i64 [ %indvars.iv.next34, %25 ], [ 0, %12 ]
  %.02730 = phi ptr [ %27, %25 ], [ %3, %12 ]
  br label %15

15:                                               ; preds = %.preheader, %15
  %indvars.iv = phi i64 [ 0, %.preheader ], [ %indvars.iv.next, %15 ]
  %16 = trunc i64 %indvars.iv to i32
  %17 = add i32 %16, 3
  %18 = and i32 %17, 2
  %.not = icmp eq i32 %18, 0
  %19 = getelementptr inbounds nuw ptr, ptr %4, i64 %indvars.iv
  %20 = load ptr, ptr %19, align 8, !tbaa !25
  %21 = getelementptr inbounds nuw i32, ptr %20, i64 %indvars.iv33
  %22 = load i32, ptr %21, align 4, !tbaa !23
  %23 = sub nsw i32 0, %22
  %.sink.in = select i1 %.not, i32 %22, i32 %23
  %.sink = sitofp i32 %.sink.in to float
  %24 = getelementptr inbounds nuw float, ptr %13, i64 %indvars.iv
  store float %.sink, ptr %24, align 4, !tbaa !33
  %indvars.iv.next = add nuw nsw i64 %indvars.iv, 1
  %exitcond.not = icmp eq i64 %indvars.iv.next, 32
  br i1 %exitcond.not, label %25, label %15, !llvm.loop !39

25:                                               ; preds = %15
  %26 = load ptr, ptr %0, align 8, !tbaa !40
  call void %26(ptr noundef %1, ptr noundef %6, ptr noundef %7, ptr noundef %8, ptr noundef %9, ptr noundef %.02730, ptr noundef nonnull %13, float noundef %11, ptr noundef %2) #10
  %27 = getelementptr inbounds nuw i8, ptr %.02730, i64 128
  %indvars.iv.next34 = add nuw nsw i64 %indvars.iv33, 1
  %exitcond36.not = icmp eq i64 %indvars.iv.next34, %10
  br i1 %exitcond36.not, label %._crit_edge, label %.preheader, !llvm.loop !42

._crit_edge:                                      ; preds = %25, %12
  call void @llvm.lifetime.end.p0(i64 128, ptr nonnull %13) #10
  ret void
}